; ModuleID = '57/713.c'
source_filename = "57/713.c"
target datalayout = "e-m:e-p270:32:32-p271:32:32-p272:64:64-i64:64-f80:128-n8:16:32:64-S128"
target triple = "x86_64-pc-linux-gnu"

@.str = private unnamed_addr constant [3 x i8] c"%d\00", align 1
@.str.1 = private unnamed_addr constant [3 x i8] c"%s\00", align 1
@.str.2 = private unnamed_addr constant [3 x i8] c"%c\00", align 1
@.str.3 = private unnamed_addr constant [2 x i8] c"\0A\00", align 1

; Function Attrs: noinline nounwind uwtable
define dso_local i32 @main() #0 {
  %1 = alloca i32, align 4
  %2 = alloca i32, align 4
  %3 = alloca i32, align 4
  %4 = alloca i32, align 4
  %5 = alloca i32, align 4
  %6 = alloca i32, align 4
  %7 = alloca i8*, align 8
  %8 = alloca i64, align 8
  store i32 0, i32* %1, align 4
  %9 = call i32 (i8*, ...) @__isoc99_scanf(i8* getelementptr inbounds ([3 x i8], [3 x i8]* @.str, i64 0, i64 0), i32* %6)
  %10 = load i32, i32* %6, align 4
  %11 = zext i32 %10 to i64
  %12 = call i8* @llvm.stacksave()
  store i8* %12, i8** %7, align 8
  %13 = alloca [33 x i8], i64 %11, align 16
  store i64 %11, i64* %8, align 8
  store i32 0, i32* %2, align 4
  br label %14

14:                                               ; preds = %24, %0
  %15 = load i32, i32* %2, align 4
  %16 = load i32, i32* %6, align 4
  %17 = icmp slt i32 %15, %16
  br i1 %17, label %18, label %27

18:                                               ; preds = %14
  %19 = load i32, i32* %2, align 4
  %20 = sext i32 %19 to i64
  %21 = getelementptr inbounds [33 x i8], [33 x i8]* %13, i64 %20
  %22 = getelementptr inbounds [33 x i8], [33 x i8]* %21, i64 0, i64 0
  %23 = call i32 (i8*, ...) @__isoc99_scanf(i8* getelementptr inbounds ([3 x i8], [3 x i8]* @.str.1, i64 0, i64 0), i8* %22)
  br label %24

24:                                               ; preds = %18
  %25 = load i32, i32* %2, align 4
  %26 = add nsw i32 %25, 1
  store i32 %26, i32* %2, align 4
  br label %14

27:                                               ; preds = %14
  store i32 0, i32* %2, align 4
  br label %28

28:                                               ; preds = %87, %27
  %29 = load i32, i32* %2, align 4
  %30 = load i32, i32* %6, align 4
  %31 = icmp slt i32 %29, %30
  br i1 %31, label %32, label %90

32:                                               ; preds = %28
  %33 = load i32, i32* %2, align 4
  %34 = sext i32 %33 to i64
  %35 = getelementptr inbounds [33 x i8], [33 x i8]* %13, i64 %34
  %36 = getelementptr inbounds [33 x i8], [33 x i8]* %35, i64 0, i64 0
  %37 = call i64 @strlen(i8* %36) #4
  %38 = trunc i64 %37 to i32
  store i32 %38, i32* %5, align 4
  %39 = load i32, i32* %2, align 4
  %40 = sext i32 %39 to i64
  %41 = getelementptr inbounds [33 x i8], [33 x i8]* %13, i64 %40
  %42 = getelementptr inbounds [33 x i8], [33 x i8]* %41, i64 0, i64 0
  %43 = call i32 @pd(i8* %42)
  %44 = icmp eq i32 %43, 1
  br i1 %44, label %45, label %65

45:                                               ; preds = %32
  store i32 0, i32* %3, align 4
  br label %46

46:                                               ; preds = %61, %45
  %47 = load i32, i32* %3, align 4
  %48 = load i32, i32* %5, align 4
  %49 = sub nsw i32 %48, 3
  %50 = icmp slt i32 %47, %49
  br i1 %50, label %51, label %64

51:                                               ; preds = %46
  %52 = load i32, i32* %2, align 4
  %53 = sext i32 %52 to i64
  %54 = getelementptr inbounds [33 x i8], [33 x i8]* %13, i64 %53
  %55 = load i32, i32* %3, align 4
  %56 = sext i32 %55 to i64
  %57 = getelementptr inbounds [33 x i8], [33 x i8]* %54, i64 0, i64 %56
  %58 = load i8, i8* %57, align 1
  %59 = sext i8 %58 to i32
  %60 = call i32 (i8*, ...) @printf(i8* getelementptr inbounds ([3 x i8], [3 x i8]* @.str.2, i64 0, i64 0), i32 %59)
  br label %61

61:                                               ; preds = %51
  %62 = load i32, i32* %3, align 4
  %63 = add nsw i32 %62, 1
  store i32 %63, i32* %3, align 4
  br label %46

64:                                               ; preds = %46
  br label %85

65:                                               ; preds = %32
  store i32 0, i32* %3, align 4
  br label %66

66:                                               ; preds = %81, %65
  %67 = load i32, i32* %3, align 4
  %68 = load i32, i32* %5, align 4
  %69 = sub nsw i32 %68, 2
  %70 = icmp slt i32 %67, %69
  br i1 %70, label %71, label %84

71:                                               ; preds = %66
  %72 = load i32, i32* %2, align 4
  %73 = sext i32 %72 to i64
  %74 = getelementptr inbounds [33 x i8], [33 x i8]* %13, i64 %73
  %75 = load i32, i32* %3, align 4
  %76 = sext i32 %75 to i64
  %77 = getelementptr inbounds [33 x i8], [33 x i8]* %74, i64 0, i64 %76
  %78 = load i8, i8* %77, align 1
  %79 = sext i8 %78 to i32
  %80 = call i32 (i8*, ...) @printf(i8* getelementptr inbounds ([3 x i8], [3 x i8]* @.str.2, i64 0, i64 0), i32 %79)
  br label %81

81:                                               ; preds = %71
  %82 = load i32, i32* %3, align 4
  %83 = add nsw i32 %82, 1
  store i32 %83, i32* %3, align 4
  br label %66

84:                                               ; preds = %66
  br label %85

85:                                               ; preds = %84, %64
  %86 = call i32 (i8*, ...) @printf(i8* getelementptr inbounds ([2 x i8], [2 x i8]* @.str.3, i64 0, i64 0))
  br label %87

87:                                               ; preds = %85
  %88 = load i32, i32* %2, align 4
  %89 = add nsw i32 %88, 1
  store i32 %89, i32* %2, align 4
  br label %28

90:                                               ; preds = %28
  %91 = load i8*, i8** %7, align 8
  call void @llvm.stackrestore(i8* %91)
  %92 = load i32, i32* %1, align 4
  ret i32 %92
}

declare dso_local i32 @__isoc99_scanf(i8*, ...) #1

; Function Attrs: nounwind
declare i8* @llvm.stacksave() #2

; Function Attrs: nounwind readonly
declare dso_local i64 @strlen(i8*) #3

; Function Attrs: noinline nounwind uwtable
define dso_local i32 @pd(i8* %0) #0 {
  %2 = alloca i32, align 4
  %3 = alloca i8*, align 8
  %4 = alloca i32, align 4
  store i8* %0, i8** %3, align 8
  %5 = load i8*, i8** %3, align 8
  %6 = call i64 @strlen(i8* %5) #4
  %7 = trunc i64 %6 to i32
  store i32 %7, i32* %4, align 4
  %8 = load i8*, i8** %3, align 8
  %9 = load i32, i32* %4, align 4
  %10 = sub nsw i32 %9, 1
  %11 = sext i32 %10 to i64
  %12 = getelementptr inbounds i8, i8* %8, i64 %11
  %13 = load i8, i8* %12, align 1
  %14 = sext i8 %13 to i32
  %15 = icmp eq i32 %14, 103
  br i1 %15, label %16, label %17

16:                                               ; preds = %1
  store i32 1, i32* %2, align 4
  br label %18

17:                                               ; preds = %1
  store i32 0, i32* %2, align 4
  br label %18

18:                                               ; preds = %17, %16
  %19 = load i32, i32* %2, align 4
  ret i32 %19
}

declare dso_local i32 @printf(i8*, ...) #1

; Function Attrs: nounwind
declare void @llvm.stackrestore(i8*) #2


!llvm.module.flags = !{!0}
!llvm.ident = !{!1}

!0 = !{i32 1, !"wchar_size", i32 4}
!1 = !{!"clang version 10.0.0-4ubuntu1 "}
